target datalayout = "e-m:e-p270:32:32-p271:32:32-p272:64:64-i64:64-i128:128-f80:128-n8:16:32:64-S128"
target triple = "x86_64-pc-linux-gnu"

%struct._object = type { %union.anon, ptr }
%union.anon = type { i64 }
%struct.PyVarObject = type { %struct._object, i64 }
%struct._typeobject = type { %struct.PyVarObject, ptr, i64, i64, ptr, i64, ptr, ptr, ptr, ptr, ptr, ptr, ptr, ptr, ptr, ptr, ptr, ptr, ptr, i64, ptr, ptr, ptr, ptr, i64, ptr, ptr, ptr, ptr, ptr, ptr, ptr, ptr, ptr, i64, ptr, ptr, ptr, ptr, ptr, ptr, ptr, ptr, ptr, ptr, ptr, i32, ptr, ptr, i8, i16 }
%struct.PyListObject = type { %struct.PyVarObject, ptr, i64 }

@.str.1 = private unnamed_addr constant [32 x i8] c"../cpython/Objects/listobject.c\00", align 1

; Function Attrs: nounwind uwtable
define internal void @reverse_slice(ptr noundef %0, ptr noundef %1) #0 {
  %3 = alloca ptr, align 8
  %4 = alloca ptr, align 8
  %5 = alloca ptr, align 8
  store ptr %0, ptr %3, align 8, !tbaa !119
  store ptr %1, ptr %4, align 8, !tbaa !119
  %6 = load ptr, ptr %4, align 8, !tbaa !119
  %7 = getelementptr ptr, ptr %6, i32 -1
  store ptr %7, ptr %4, align 8, !tbaa !119
  br label %8

8:                                                ; preds = %12, %2
  %9 = load ptr, ptr %3, align 8, !tbaa !119
  %10 = load ptr, ptr %4, align 8, !tbaa !119
  %11 = icmp ult ptr %9, %10
  br i1 %11, label %12, label %24

12:                                               ; preds = %8
  call void @llvm.lifetime.start.p0(i64 8, ptr %5) #8
  %13 = load ptr, ptr %3, align 8, !tbaa !119
  %14 = load ptr, ptr %13, align 8, !tbaa !36
  store ptr %14, ptr %5, align 8, !tbaa !36
  %15 = load ptr, ptr %4, align 8, !tbaa !119
  %16 = load ptr, ptr %15, align 8, !tbaa !36
  %17 = load ptr, ptr %3, align 8, !tbaa !119
  store ptr %16, ptr %17, align 8, !tbaa !36
  %18 = load ptr, ptr %5, align 8, !tbaa !36
  %19 = load ptr, ptr %4, align 8, !tbaa !119
  store ptr %18, ptr %19, align 8, !tbaa !36
  %20 = load ptr, ptr %3, align 8, !tbaa !119
  %21 = getelementptr ptr, ptr %20, i32 1
  store ptr %21, ptr %3, align 8, !tbaa !119
  %22 = load ptr, ptr %4, align 8, !tbaa !119
  %23 = getelementptr ptr, ptr %22, i32 -1
  store ptr %23, ptr %4, align 8, !tbaa !119
  call void @llvm.lifetime.end.p0(i64 8, ptr %5) #8
  br label %8, !llvm.loop !146

24:                                               ; preds = %8
  ret void
}

; Function Attrs: inlinehint nounwind uwtable
define internal i64 @Py_SIZE(ptr noundef %0) #2 {
  %2 = alloca ptr, align 8
  store ptr %0, ptr %2, align 8, !tbaa !36
  %3 = load ptr, ptr %2, align 8, !tbaa !36
  %4 = getelementptr inbounds nuw %struct.PyVarObject, ptr %3, i32 0, i32 1
  %5 = load i64, ptr %4, align 8, !tbaa !38
  ret i64 %5
}

; Function Attrs: inlinehint nounwind uwtable
define internal i32 @PyType_HasFeature(ptr noundef %0, i64 noundef %1) #2 {
  %3 = alloca ptr, align 8
  %4 = alloca i64, align 8
  %5 = alloca i64, align 8
  store ptr %0, ptr %3, align 8, !tbaa !110
  store i64 %1, ptr %4, align 8, !tbaa !26
  call void @llvm.lifetime.start.p0(i64 8, ptr %5) #8
  %6 = load ptr, ptr %3, align 8, !tbaa !110
  %7 = getelementptr inbounds nuw %struct._typeobject, ptr %6, i32 0, i32 19
  %8 = load i64, ptr %7, align 8, !tbaa !111
  store i64 %8, ptr %5, align 8, !tbaa !26
  %9 = load i64, ptr %5, align 8, !tbaa !26
  %10 = load i64, ptr %4, align 8, !tbaa !26
  %11 = and i64 %9, %10
  %12 = icmp ne i64 %11, 0
  %13 = zext i1 %12 to i32
  call void @llvm.lifetime.end.p0(i64 8, ptr %5) #8
  ret i32 %13
}

; Function Attrs: inlinehint nounwind uwtable
define internal ptr @_Py_TYPE(ptr noundef %0) #2 {
  %2 = alloca ptr, align 8
  store ptr %0, ptr %2, align 8, !tbaa !36
  %3 = load ptr, ptr %2, align 8, !tbaa !36
  %4 = getelementptr inbounds nuw %struct._object, ptr %3, i32 0, i32 1
  %5 = load ptr, ptr %4, align 8, !tbaa !117
  ret ptr %5
}

; Function Attrs: nounwind uwtable
define dso_local i32 @PyList_Reverse(ptr noundef %0) #0 {
  %2 = alloca i32, align 4
  %3 = alloca ptr, align 8
  %4 = alloca ptr, align 8
  %5 = alloca i32, align 4
  store ptr %0, ptr %3, align 8, !tbaa !36
  call void @llvm.lifetime.start.p0(i64 8, ptr %4) #8
  %6 = load ptr, ptr %3, align 8, !tbaa !36
  store ptr %6, ptr %4, align 8, !tbaa !27
  %7 = load ptr, ptr %3, align 8, !tbaa !36
  %8 = icmp eq ptr %7, null
  br i1 %8, label %14, label %9

9:                                                ; preds = %1
  %10 = load ptr, ptr %3, align 8, !tbaa !36
  %11 = call ptr @_Py_TYPE(ptr noundef %10)
  %12 = call i32 @PyType_HasFeature(ptr noundef %11, i64 noundef 33554432)
  %13 = icmp ne i32 %12, 0
  br i1 %13, label %15, label %14

14:                                               ; preds = %9, %1
  call void @_PyErr_BadInternalCall(ptr noundef @.str.1, i32 noundef 3147)
  store i32 -1, ptr %2, align 4
  store i32 1, ptr %5, align 4
  br label %30

15:                                               ; preds = %9
  %16 = load ptr, ptr %4, align 8, !tbaa !27
  %17 = call i64 @Py_SIZE(ptr noundef %16)
  %18 = icmp sgt i64 %17, 1
  br i1 %18, label %19, label %29

19:                                               ; preds = %15
  %20 = load ptr, ptr %4, align 8, !tbaa !27
  %21 = getelementptr inbounds nuw %struct.PyListObject, ptr %20, i32 0, i32 1
  %22 = load ptr, ptr %21, align 8, !tbaa !28
  %23 = load ptr, ptr %4, align 8, !tbaa !27
  %24 = getelementptr inbounds nuw %struct.PyListObject, ptr %23, i32 0, i32 1
  %25 = load ptr, ptr %24, align 8, !tbaa !28
  %26 = load ptr, ptr %4, align 8, !tbaa !27
  %27 = call i64 @Py_SIZE(ptr noundef %26)
  %28 = getelementptr ptr, ptr %25, i64 %27
  call void @reverse_slice(ptr noundef %22, ptr noundef %28)
  br label %29

29:                                               ; preds = %19, %15
  store i32 0, ptr %2, align 4
  store i32 1, ptr %5, align 4
  br label %30

30:                                               ; preds = %29, %14
  call void @llvm.lifetime.end.p0(i64 8, ptr %4) #8
  %31 = load i32, ptr %2, align 4
  ret i32 %31
}