; Function Attrs: nounwind uwtable
define dso_local range(i32 -1, 1) i32 @PyList_Reverse(ptr noundef readonly %0) local_unnamed_addr #0 {
  %2 = icmp eq ptr %0, null
  br i1 %2, label %7, label %3

3:                                                ; preds = %1
  %4 = getelementptr i8, ptr %0, i64 8
  %.val9 = load ptr, ptr %4, align 8, !tbaa !105
  %5 = getelementptr i8, ptr %.val9, i64 168
  %.val10 = load i64, ptr %5, align 8, !tbaa !106
  %6 = and i64 %.val10, 33554432
  %.not = icmp eq i64 %6, 0
  br i1 %.not, label %7, label %8

7:                                                ; preds = %3, %1
  tail call void @_PyErr_BadInternalCall(ptr noundef nonnull @.str.1, i32 noundef 3147) #12
  br label %reverse_slice.exit

8:                                                ; preds = %3
  %9 = getelementptr i8, ptr %0, i64 16
  %.val8 = load i64, ptr %9, align 8, !tbaa !33
  %10 = icmp sgt i64 %.val8, 1
  br i1 %10, label %11, label %reverse_slice.exit

11:                                               ; preds = %8
  %12 = getelementptr inbounds nuw i8, ptr %0, i64 24
  %13 = load ptr, ptr %12, align 8, !tbaa !27
  %14 = getelementptr ptr, ptr %13, i64 %.val8
  %.01011.i = getelementptr i8, ptr %14, i64 -8
  %15 = icmp ult ptr %13, %.01011.i
  br i1 %15, label %.lr.ph.i, label %reverse_slice.exit

.lr.ph.i:                                         ; preds = %11, %.lr.ph.i
  %.01013.i = phi ptr [ %.010.i, %.lr.ph.i ], [ %.01011.i, %11 ]
  %.012.i = phi ptr [ %18, %.lr.ph.i ], [ %13, %11 ]
  %16 = load ptr, ptr %.012.i, align 8, !tbaa !112
  %17 = load ptr, ptr %.01013.i, align 8, !tbaa !112
  store ptr %17, ptr %.012.i, align 8, !tbaa !112
  store ptr %16, ptr %.01013.i, align 8, !tbaa !112
  %18 = getelementptr i8, ptr %.012.i, i64 8
  %.010.i = getelementptr i8, ptr %.01013.i, i64 -8
  %19 = icmp ult ptr %18, %.010.i
  br i1 %19, label %.lr.ph.i, label %reverse_slice.exit, !llvm.loop !142

reverse_slice.exit:                               ; preds = %.lr.ph.i, %11, %8, %7
  %.0 = phi i32 [ -1, %7 ], [ 0, %8 ], [ 0, %11 ], [ 0, %.lr.ph.i ]
  ret i32 %.0
}